target datalayout = "e-m:e-p270:32:32-p271:32:32-p272:64:64-i64:64-i128:128-f80:128-n8:16:32:64-S128"
target triple = "x86_64-pc-linux-gnu"

@.str.3 = private unnamed_addr constant [37 x i8] c"../openssl/test/pkey_meth_kdf_test.c\00", align 1
@.str.5 = private unnamed_addr constant [21 x i8] c"EVP_PKEY_derive_init\00", align 1
@.str.7 = private unnamed_addr constant [7 x i8] c"secret\00", align 1
@.str.13 = private unnamed_addr constant [16 x i8] c"EVP_PKEY_derive\00", align 1
@.str.14 = private unnamed_addr constant [4 x i8] c"out\00", align 1
@.str.15 = private unnamed_addr constant [9 x i8] c"expected\00", align 1
@.str.16 = private unnamed_addr constant [14 x i8] c"EVP_PKEY_HKDF\00", align 1
@.str.17 = private unnamed_addr constant [25 x i8] c"EVP_PKEY_CTX_set_hkdf_md\00", align 1
@.str.18 = private unnamed_addr constant [5 x i8] c"salt\00", align 1
@.str.19 = private unnamed_addr constant [28 x i8] c"EVP_PKEY_CTX_set1_hkdf_salt\00", align 1
@.str.20 = private unnamed_addr constant [27 x i8] c"EVP_PKEY_CTX_set1_hkdf_key\00", align 1
@.str.21 = private unnamed_addr constant [6 x i8] c"label\00", align 1
@.str.22 = private unnamed_addr constant [28 x i8] c"EVP_PKEY_CTX_add1_hkdf_info\00", align 1
@.str.23 = private unnamed_addr constant [4 x i8] c"lab\00", align 1
@.str.24 = private unnamed_addr constant [3 x i8] c"el\00", align 1
@__const.test_kdf_hkdf.expected = private unnamed_addr constant [10 x i8] c"*\C46\9FRY\96\F8\DE\13", align 1

; Function Attrs: nounwind uwtable
define internal i32 @test_kdf_hkdf(i32 noundef %0) #0 {
  %2 = alloca i32, align 4
  %3 = alloca i32, align 4
  %4 = alloca i32, align 4
  %5 = alloca ptr, align 8
  %6 = alloca [10 x i8], align 1
  %7 = alloca i64, align 8
  %8 = alloca [10 x i8], align 1
  %9 = alloca i32, align 4
  store i32 %0, ptr %3, align 4, !tbaa !4
  call void @llvm.lifetime.start.p0(i64 4, ptr %4) #4
  store i32 0, ptr %4, align 4, !tbaa !4
  call void @llvm.lifetime.start.p0(i64 8, ptr %5) #4
  call void @llvm.lifetime.start.p0(i64 10, ptr %6) #4
  call void @llvm.lifetime.start.p0(i64 8, ptr %7) #4
  store i64 10, ptr %7, align 8, !tbaa !8
  %10 = call ptr @EVP_PKEY_CTX_new_id(i32 noundef 1036, ptr noundef null)
  store ptr %10, ptr %5, align 8, !tbaa !10
  %11 = icmp eq ptr %10, null
  br i1 %11, label %12, label %13

12:                                               ; preds = %1
  call void (ptr, i32, ptr, ...) @test_error(ptr noundef @.str.3, i32 noundef 89, ptr noundef @.str.16)
  br label %70

13:                                               ; preds = %1
  %14 = load ptr, ptr %5, align 8, !tbaa !10
  %15 = call i32 @EVP_PKEY_derive_init(ptr noundef %14)
  %16 = icmp sle i32 %15, 0
  br i1 %16, label %17, label %18

17:                                               ; preds = %13
  call void (ptr, i32, ptr, ...) @test_error(ptr noundef @.str.3, i32 noundef 93, ptr noundef @.str.5)
  br label %70

18:                                               ; preds = %13
  %19 = load ptr, ptr %5, align 8, !tbaa !10
  %20 = call ptr @EVP_sha256()
  %21 = call i32 @EVP_PKEY_CTX_set_hkdf_md(ptr noundef %19, ptr noundef %20)
  %22 = icmp sle i32 %21, 0
  br i1 %22, label %23, label %24

23:                                               ; preds = %18
  call void (ptr, i32, ptr, ...) @test_error(ptr noundef @.str.3, i32 noundef 97, ptr noundef @.str.17)
  br label %70

24:                                               ; preds = %18
  %25 = load ptr, ptr %5, align 8, !tbaa !10
  %26 = call i32 @EVP_PKEY_CTX_set1_hkdf_salt(ptr noundef %25, ptr noundef @.str.18, i32 noundef 4)
  %27 = icmp sle i32 %26, 0
  br i1 %27, label %28, label %29

28:                                               ; preds = %24
  call void (ptr, i32, ptr, ...) @test_error(ptr noundef @.str.3, i32 noundef 102, ptr noundef @.str.19)
  br label %70

29:                                               ; preds = %24
  %30 = load ptr, ptr %5, align 8, !tbaa !10
  %31 = call i32 @EVP_PKEY_CTX_set1_hkdf_key(ptr noundef %30, ptr noundef @.str.7, i32 noundef 6)
  %32 = icmp sle i32 %31, 0
  br i1 %32, label %33, label %34

33:                                               ; preds = %29
  call void (ptr, i32, ptr, ...) @test_error(ptr noundef @.str.3, i32 noundef 107, ptr noundef @.str.20)
  br label %70

34:                                               ; preds = %29
  %35 = load i32, ptr %3, align 4, !tbaa !4
  %36 = icmp eq i32 %35, 0
  br i1 %36, label %37, label %43

37:                                               ; preds = %34
  %38 = load ptr, ptr %5, align 8, !tbaa !10
  %39 = call i32 @EVP_PKEY_CTX_add1_hkdf_info(ptr noundef %38, ptr noundef @.str.21, i32 noundef 5)
  %40 = icmp sle i32 %39, 0
  br i1 %40, label %41, label %42

41:                                               ; preds = %37
  call void (ptr, i32, ptr, ...) @test_error(ptr noundef @.str.3, i32 noundef 113, ptr noundef @.str.22)
  br label %70

42:                                               ; preds = %37
  br label %54

43:                                               ; preds = %34
  %44 = load ptr, ptr %5, align 8, !tbaa !10
  %45 = call i32 @EVP_PKEY_CTX_add1_hkdf_info(ptr noundef %44, ptr noundef @.str.23, i32 noundef 3)
  %46 = icmp sle i32 %45, 0
  br i1 %46, label %47, label %48

47:                                               ; preds = %43
  call void (ptr, i32, ptr, ...) @test_error(ptr noundef @.str.3, i32 noundef 119, ptr noundef @.str.22)
  br label %70

48:                                               ; preds = %43
  %49 = load ptr, ptr %5, align 8, !tbaa !10
  %50 = call i32 @EVP_PKEY_CTX_add1_hkdf_info(ptr noundef %49, ptr noundef @.str.24, i32 noundef 2)
  %51 = icmp sle i32 %50, 0
  br i1 %51, label %52, label %53

52:                                               ; preds = %48
  call void (ptr, i32, ptr, ...) @test_error(ptr noundef @.str.3, i32 noundef 124, ptr noundef @.str.22)
  br label %70

53:                                               ; preds = %48
  br label %54

54:                                               ; preds = %53, %42
  %55 = load ptr, ptr %5, align 8, !tbaa !10
  %56 = getelementptr inbounds [10 x i8], ptr %6, i64 0, i64 0
  %57 = call i32 @EVP_PKEY_derive(ptr noundef %55, ptr noundef %56, ptr noundef %7)
  %58 = icmp sle i32 %57, 0
  br i1 %58, label %59, label %60

59:                                               ; preds = %54
  call void (ptr, i32, ptr, ...) @test_error(ptr noundef @.str.3, i32 noundef 129, ptr noundef @.str.13)
  br label %70

60:                                               ; preds = %54
  call void @llvm.lifetime.start.p0(i64 10, ptr %8) #4
  call void @llvm.memcpy.p0.p0.i64(ptr align 1 %8, ptr align 1 @__const.test_kdf_hkdf.expected, i64 10, i1 false)
  %61 = getelementptr inbounds [10 x i8], ptr %6, i64 0, i64 0
  %62 = getelementptr inbounds [10 x i8], ptr %8, i64 0, i64 0
  %63 = call i32 @test_mem_eq(ptr noundef @.str.3, i32 noundef 137, ptr noundef @.str.14, ptr noundef @.str.15, ptr noundef %61, i64 noundef 10, ptr noundef %62, i64 noundef 10)
  %64 = icmp ne i32 %63, 0
  br i1 %64, label %66, label %65

65:                                               ; preds = %60
  store i32 2, ptr %9, align 4
  br label %67

66:                                               ; preds = %60
  store i32 0, ptr %9, align 4
  br label %67

67:                                               ; preds = %65, %66
  call void @llvm.lifetime.end.p0(i64 10, ptr %8) #4
  %68 = load i32, ptr %9, align 4
  switch i32 %68, label %73 [
    i32 0, label %69
    i32 2, label %70
  ]

69:                                               ; preds = %67
  store i32 1, ptr %4, align 4, !tbaa !4
  br label %70

70:                                               ; preds = %69, %67, %59, %52, %47, %41, %33, %28, %23, %17, %12
  %71 = load ptr, ptr %5, align 8, !tbaa !10
  call void @EVP_PKEY_CTX_free(ptr noundef %71)
  %72 = load i32, ptr %4, align 4, !tbaa !4
  store i32 %72, ptr %2, align 4
  store i32 1, ptr %9, align 4
  br label %73

73:                                               ; preds = %70, %67
  call void @llvm.lifetime.end.p0(i64 8, ptr %7) #4
  call void @llvm.lifetime.end.p0(i64 10, ptr %6) #4
  call void @llvm.lifetime.end.p0(i64 8, ptr %5) #4
  call void @llvm.lifetime.end.p0(i64 4, ptr %4) #4
  %74 = load i32, ptr %2, align 4
  ret i32 %74
}