; Function Attrs: nounwind uwtable
define internal range(i32 0, 2) i32 @test_kdf_hkdf(i32 noundef %0) #0 {
  %2 = alloca [10 x i8], align 1
  %3 = alloca i64, align 8
  %4 = alloca [10 x i8], align 1
  call void @llvm.lifetime.start.p0(i64 10, ptr nonnull %2) #4
  call void @llvm.lifetime.start.p0(i64 8, ptr nonnull %3) #4
  store i64 10, ptr %3, align 8, !tbaa !4
  %5 = tail call ptr @EVP_PKEY_CTX_new_id(i32 noundef 1036, ptr noundef null) #4
  %6 = icmp eq ptr %5, null
  br i1 %6, label %7, label %8

7:                                                ; preds = %1
  tail call void (ptr, i32, ptr, ...) @test_error(ptr noundef nonnull @.str.3, i32 noundef 89, ptr noundef nonnull @.str.16) #4
  br label %45

8:                                                ; preds = %1
  %9 = tail call i32 @EVP_PKEY_derive_init(ptr noundef nonnull %5) #4
  %10 = icmp slt i32 %9, 1
  br i1 %10, label %11, label %12

11:                                               ; preds = %8
  tail call void (ptr, i32, ptr, ...) @test_error(ptr noundef nonnull @.str.3, i32 noundef 93, ptr noundef nonnull @.str.5) #4
  br label %45

12:                                               ; preds = %8
  %13 = tail call ptr @EVP_sha256() #4
  %14 = tail call i32 @EVP_PKEY_CTX_set_hkdf_md(ptr noundef nonnull %5, ptr noundef %13) #4
  %15 = icmp slt i32 %14, 1
  br i1 %15, label %16, label %17

16:                                               ; preds = %12
  tail call void (ptr, i32, ptr, ...) @test_error(ptr noundef nonnull @.str.3, i32 noundef 97, ptr noundef nonnull @.str.17) #4
  br label %45

17:                                               ; preds = %12
  %18 = tail call i32 @EVP_PKEY_CTX_set1_hkdf_salt(ptr noundef nonnull %5, ptr noundef nonnull @.str.18, i32 noundef 4) #4
  %19 = icmp slt i32 %18, 1
  br i1 %19, label %20, label %21

20:                                               ; preds = %17
  tail call void (ptr, i32, ptr, ...) @test_error(ptr noundef nonnull @.str.3, i32 noundef 102, ptr noundef nonnull @.str.19) #4
  br label %45

21:                                               ; preds = %17
  %22 = tail call i32 @EVP_PKEY_CTX_set1_hkdf_key(ptr noundef nonnull %5, ptr noundef nonnull @.str.7, i32 noundef 6) #4
  %23 = icmp slt i32 %22, 1
  br i1 %23, label %24, label %25

24:                                               ; preds = %21
  tail call void (ptr, i32, ptr, ...) @test_error(ptr noundef nonnull @.str.3, i32 noundef 107, ptr noundef nonnull @.str.20) #4
  br label %45

25:                                               ; preds = %21
  %26 = icmp eq i32 %0, 0
  br i1 %26, label %27, label %31

27:                                               ; preds = %25
  %28 = tail call i32 @EVP_PKEY_CTX_add1_hkdf_info(ptr noundef nonnull %5, ptr noundef nonnull @.str.21, i32 noundef 5) #4
  %29 = icmp slt i32 %28, 1
  br i1 %29, label %30, label %39

30:                                               ; preds = %27
  tail call void (ptr, i32, ptr, ...) @test_error(ptr noundef nonnull @.str.3, i32 noundef 113, ptr noundef nonnull @.str.22) #4
  br label %45

31:                                               ; preds = %25
  %32 = tail call i32 @EVP_PKEY_CTX_add1_hkdf_info(ptr noundef nonnull %5, ptr noundef nonnull @.str.23, i32 noundef 3) #4
  %33 = icmp slt i32 %32, 1
  br i1 %33, label %34, label %35

34:                                               ; preds = %31
  tail call void (ptr, i32, ptr, ...) @test_error(ptr noundef nonnull @.str.3, i32 noundef 119, ptr noundef nonnull @.str.22) #4
  br label %45

35:                                               ; preds = %31
  %36 = tail call i32 @EVP_PKEY_CTX_add1_hkdf_info(ptr noundef nonnull %5, ptr noundef nonnull @.str.24, i32 noundef 2) #4
  %37 = icmp slt i32 %36, 1
  br i1 %37, label %38, label %39

38:                                               ; preds = %35
  tail call void (ptr, i32, ptr, ...) @test_error(ptr noundef nonnull @.str.3, i32 noundef 124, ptr noundef nonnull @.str.22) #4
  br label %45

39:                                               ; preds = %35, %27
  %40 = call i32 @EVP_PKEY_derive(ptr noundef nonnull %5, ptr noundef nonnull %2, ptr noundef nonnull %3) #4
  %41 = icmp slt i32 %40, 1
  br i1 %41, label %42, label %43

42:                                               ; preds = %39
  call void (ptr, i32, ptr, ...) @test_error(ptr noundef nonnull @.str.3, i32 noundef 129, ptr noundef nonnull @.str.13) #4
  br label %45

43:                                               ; preds = %39
  call void @llvm.lifetime.start.p0(i64 10, ptr nonnull %4) #4
  call void @llvm.memcpy.p0.p0.i64(ptr noundef nonnull align 1 dereferenceable(10) %4, ptr noundef nonnull align 1 dereferenceable(10) @__const.test_kdf_hkdf.expected, i64 10, i1 false)
  %44 = call i32 @test_mem_eq(ptr noundef nonnull @.str.3, i32 noundef 137, ptr noundef nonnull @.str.14, ptr noundef nonnull @.str.15, ptr noundef nonnull %2, i64 noundef 10, ptr noundef nonnull %4, i64 noundef 10) #4
  %.not = icmp ne i32 %44, 0
  call void @llvm.lifetime.end.p0(i64 10, ptr nonnull %4) #4
  %spec.select = zext i1 %.not to i32
  br label %45

45:                                               ; preds = %43, %42, %38, %34, %30, %24, %20, %16, %11, %7
  %.013 = phi i32 [ 0, %7 ], [ 0, %11 ], [ 0, %16 ], [ 0, %20 ], [ 0, %24 ], [ 0, %30 ], [ 0, %42 ], [ 0, %34 ], [ 0, %38 ], [ %spec.select, %43 ]
  call void @EVP_PKEY_CTX_free(ptr noundef %5) #4
  call void @llvm.lifetime.end.p0(i64 8, ptr nonnull %3) #4
  call void @llvm.lifetime.end.p0(i64 10, ptr nonnull %2) #4
  ret i32 %.013
}